; Function Attrs: nounwind uwtable
define void @lv_image_set_blend_mode(ptr noundef %0, i32 noundef %1) local_unnamed_addr #0 {
  %.not = icmp eq ptr %0, null
  br i1 %.not, label %.preheader, label %3

.preheader:                                       ; preds = %2, %.preheader
  br label %.preheader

3:                                                ; preds = %2
  %4 = getelementptr inbounds nuw i8, ptr %0, i64 116
  %5 = load i16, ptr %4, align 4
  %6 = lshr i16 %5, 12
  %7 = zext nneg i16 %6 to i32
  %8 = icmp eq i32 %1, %7
  br i1 %8, label %14, label %9

9:                                                ; preds = %3
  %10 = trunc i32 %1 to i16
  %11 = shl i16 %10, 12
  %12 = and i16 %5, 4095
  %13 = or disjoint i16 %12, %11
  store i16 %13, ptr %4, align 4
  tail call void @lv_obj_invalidate(ptr noundef nonnull %0) #6
  br label %14

14:                                               ; preds = %3, %9
  ret void
}